target datalayout = "e-m:e-p270:32:32-p271:32:32-p272:64:64-i64:64-i128:128-f80:128-n8:16:32:64-S128"
target triple = "x86_64-pc-linux-gnu"

%"struct.std::_Rb_tree_header" = type { %"struct.std::_Rb_tree_node_base", i64 }
%"struct.std::_Rb_tree_node_base" = type { i32, ptr, ptr, ptr }
%"class.std::__cxx11::basic_string" = type { %"struct.std::__cxx11::basic_string<char>::_Alloc_hider", i64, %union.anon }
%"struct.std::__cxx11::basic_string<char>::_Alloc_hider" = type { ptr }
%union.anon = type { i64, [8 x i8] }
%"class.llvm::gi::Matcher" = type { ptr }
%"struct.std::_Vector_base.31" = type { %"struct.std::_Vector_base<llvm::Record *, std::allocator<llvm::Record *>>::_Vector_impl" }
%"struct.std::_Vector_base<llvm::Record *, std::allocator<llvm::Record *>>::_Vector_impl" = type { %"struct.std::_Vector_base<llvm::Record *, std::allocator<llvm::Record *>>::_Vector_impl_data" }
%"struct.std::_Vector_base<llvm::Record *, std::allocator<llvm::Record *>>::_Vector_impl_data" = type { ptr, ptr, ptr }
%"class.llvm::gi::RuleMatcher" = type { %"class.llvm::gi::Matcher", %"class.std::vector.108", %"class.std::__cxx11::list", %"class.std::__cxx11::basic_string", %"class.std::map", %"class.llvm::SmallPtrSet", %"class.llvm::StringMap", %"class.llvm::DenseMap.121", i32, i32, i32, i64, i32, i16, %"class.std::vector.124", %"class.std::vector.30", %"class.std::vector.129", %"class.llvm::DenseSet", %"class.llvm::ArrayRef.137", %"class.llvm::StringMap.138", %"class.llvm::StringMap.139", i64 }
%"class.std::vector.108" = type { %"struct.std::_Vector_base.109" }
%"struct.std::_Vector_base.109" = type { %"struct.std::_Vector_base<std::unique_ptr<llvm::gi::InstructionMatcher>, std::allocator<std::unique_ptr<llvm::gi::InstructionMatcher>>>::_Vector_impl" }
%"struct.std::_Vector_base<std::unique_ptr<llvm::gi::InstructionMatcher>, std::allocator<std::unique_ptr<llvm::gi::InstructionMatcher>>>::_Vector_impl" = type { %"struct.std::_Vector_base<std::unique_ptr<llvm::gi::InstructionMatcher>, std::allocator<std::unique_ptr<llvm::gi::InstructionMatcher>>>::_Vector_impl_data" }
%"struct.std::_Vector_base<std::unique_ptr<llvm::gi::InstructionMatcher>, std::allocator<std::unique_ptr<llvm::gi::InstructionMatcher>>>::_Vector_impl_data" = type { ptr, ptr, ptr }
%"class.std::__cxx11::list" = type { %"class.std::__cxx11::_List_base" }
%"class.std::__cxx11::_List_base" = type { %"struct.std::__cxx11::_List_base<std::unique_ptr<llvm::gi::MatchAction>, std::allocator<std::unique_ptr<llvm::gi::MatchAction>>>::_List_impl" }
%"struct.std::__cxx11::_List_base<std::unique_ptr<llvm::gi::MatchAction>, std::allocator<std::unique_ptr<llvm::gi::MatchAction>>>::_List_impl" = type { %"struct.std::__detail::_List_node_header" }
%"struct.std::__detail::_List_node_header" = type { %"struct.std::__detail::_List_node_base", i64 }
%"struct.std::__detail::_List_node_base" = type { ptr, ptr }
%"class.std::map" = type { %"class.std::_Rb_tree.116" }
%"class.std::_Rb_tree.116" = type { %"struct.std::_Rb_tree<llvm::gi::InstructionMatcher *, std::pair<llvm::gi::InstructionMatcher *const, unsigned int>, std::_Select1st<std::pair<llvm::gi::InstructionMatcher *const, unsigned int>>, std::less<llvm::gi::InstructionMatcher *>>::_Rb_tree_impl" }
%"struct.std::_Rb_tree<llvm::gi::InstructionMatcher *, std::pair<llvm::gi::InstructionMatcher *const, unsigned int>, std::_Select1st<std::pair<llvm::gi::InstructionMatcher *const, unsigned int>>, std::less<llvm::gi::InstructionMatcher *>>::_Rb_tree_impl" = type { [8 x i8], %"struct.std::_Rb_tree_header" }
%"class.llvm::SmallPtrSet" = type { %"class.llvm::SmallPtrSetImpl.base", [4 x ptr] }
%"class.llvm::SmallPtrSetImpl.base" = type { %"class.llvm::SmallPtrSetImplBase.base" }
%"class.llvm::SmallPtrSetImplBase.base" = type <{ ptr, ptr, i32, i32, i32 }>
%"class.llvm::StringMap" = type { %"class.llvm::StringMapImpl" }
%"class.llvm::StringMapImpl" = type { ptr, i32, i32, i32, i32 }
%"class.llvm::DenseMap.121" = type <{ ptr, i32, i32, i32, [4 x i8] }>
%"class.std::vector.124" = type { %"struct.std::_Vector_base.125" }
%"struct.std::_Vector_base.125" = type { %"struct.std::_Vector_base<std::__cxx11::basic_string<char>, std::allocator<std::__cxx11::basic_string<char>>>::_Vector_impl" }
%"struct.std::_Vector_base<std::__cxx11::basic_string<char>, std::allocator<std::__cxx11::basic_string<char>>>::_Vector_impl" = type { %"struct.std::_Vector_base<std::__cxx11::basic_string<char>, std::allocator<std::__cxx11::basic_string<char>>>::_Vector_impl_data" }
%"struct.std::_Vector_base<std::__cxx11::basic_string<char>, std::allocator<std::__cxx11::basic_string<char>>>::_Vector_impl_data" = type { ptr, ptr, ptr }
%"class.std::vector.30" = type { %"struct.std::_Vector_base.31" }
%"class.std::vector.129" = type { %"struct.std::_Vector_base.130" }
%"struct.std::_Vector_base.130" = type { %"struct.std::_Vector_base<std::unique_ptr<llvm::gi::PredicateMatcher>, std::allocator<std::unique_ptr<llvm::gi::PredicateMatcher>>>::_Vector_impl" }
%"struct.std::_Vector_base<std::unique_ptr<llvm::gi::PredicateMatcher>, std::allocator<std::unique_ptr<llvm::gi::PredicateMatcher>>>::_Vector_impl" = type { %"struct.std::_Vector_base<std::unique_ptr<llvm::gi::PredicateMatcher>, std::allocator<std::unique_ptr<llvm::gi::PredicateMatcher>>>::_Vector_impl_data" }
%"struct.std::_Vector_base<std::unique_ptr<llvm::gi::PredicateMatcher>, std::allocator<std::unique_ptr<llvm::gi::PredicateMatcher>>>::_Vector_impl_data" = type { ptr, ptr, ptr }
%"class.llvm::DenseSet" = type { %"class.llvm::detail::DenseSetImpl" }
%"class.llvm::detail::DenseSetImpl" = type { %"class.llvm::DenseMap.134" }
%"class.llvm::DenseMap.134" = type <{ ptr, i32, i32, i32, [4 x i8] }>
%"class.llvm::ArrayRef.137" = type { ptr, i64 }
%"class.llvm::StringMap.138" = type { %"class.llvm::StringMapImpl" }
%"class.llvm::StringMap.139" = type { %"class.llvm::StringMapImpl" }

; Function Attrs: mustprogress nounwind uwtable
define dso_local noundef i32 @_ZN4llvm2gi11RuleMatcher23implicitlyDefineInsnVarERNS0_18InstructionMatcherE(ptr noundef nonnull align 8 dereferenceable(448) %0, ptr noundef nonnull align 8 dereferenceable(208) %1) #1 align 2 {
  %3 = alloca ptr, align 8
  %4 = alloca ptr, align 8
  %5 = alloca i32, align 4
  %6 = alloca ptr, align 8
  store ptr %0, ptr %3, align 8
  store ptr %1, ptr %4, align 8
  %7 = load ptr, ptr %3, align 8
  %8 = getelementptr inbounds nuw %"class.llvm::gi::RuleMatcher", ptr %7, i32 0, i32 8
  %9 = load i32, ptr %8, align 8
  %10 = add i32 %9, 1
  store i32 %10, ptr %8, align 8
  store i32 %9, ptr %5, align 4
  %11 = load i32, ptr %5, align 4
  %12 = getelementptr inbounds nuw %"class.llvm::gi::RuleMatcher", ptr %7, i32 0, i32 4
  %13 = load ptr, ptr %4, align 8
  store ptr %13, ptr %6, align 8
  %14 = call noundef nonnull align 4 dereferenceable(4) ptr @_ZNSt3mapIPN4llvm2gi18InstructionMatcherEjSt4lessIS3_ESaISt4pairIKS3_jEEEixEOS3_(ptr noundef nonnull align 8 dereferenceable(48) %12, ptr noundef nonnull align 8 dereferenceable(8) %6)
  store i32 %11, ptr %14, align 4
  %15 = load i32, ptr %5, align 4
  ret i32 %15
}