; Function Attrs: mustprogress nounwind uwtable
define dso_local noundef i32 @_ZN4llvm2gi11RuleMatcher23implicitlyDefineInsnVarERNS0_18InstructionMatcherE(ptr noundef nonnull align 8 dereferenceable(448) %0, ptr noundef nonnull align 8 dereferenceable(208) %1) local_unnamed_addr #0 align 2 {
  %3 = alloca ptr, align 8
  %4 = getelementptr inbounds nuw i8, ptr %0, i64 248
  %5 = load i32, ptr %4, align 8
  %6 = add i32 %5, 1
  store i32 %6, ptr %4, align 8
  %7 = getelementptr inbounds nuw i8, ptr %0, i64 88
  store ptr %1, ptr %3, align 8
  %8 = call noundef nonnull align 4 dereferenceable(4) ptr @_ZNSt3mapIPN4llvm2gi18InstructionMatcherEjSt4lessIS3_ESaISt4pairIKS3_jEEEixEOS3_(ptr noundef nonnull align 8 dereferenceable(48) %7, ptr noundef nonnull align 8 dereferenceable(8) %3)
  store i32 %5, ptr %8, align 4
  ret i32 %5
}